target datalayout = "e-m:e-p270:32:32-p271:32:32-p272:64:64-i64:64-i128:128-f80:128-n8:16:32:64-S128"
target triple = "x86_64-pc-linux-gnu"

%class.btVector3 = type { [4 x float] }
%class.btAlignedObjectArray = type <{ [4 x i8], i32, i32, [4 x i8], ptr, i8, [7 x i8] }>
%struct.btDispatcherInfo = type <{ float, i32, i32, float, i8, [7 x i8], ptr, i8, i8, i8, i8, float, i8, [3 x i8], float, i8, [7 x i8] }>
%class.btTransform = type { %class.btMatrix3x3, %class.btVector3 }
%class.btMatrix3x3 = type { [3 x %class.btVector3] }
%class.btAlignedObjectArray.24 = type <{ [4 x i8], i32, i32, [4 x i8], ptr, i8, [7 x i8] }>
%class.btCollisionWorld = type <{ ptr, %class.btAlignedObjectArray, ptr, %struct.btDispatcherInfo, ptr, ptr, i8, [7 x i8] }>
%class.btChunk = type { i32, i32, ptr, i32, i32 }
%class.btCollisionObject = type <{ ptr, %class.btTransform, %class.btTransform, %class.btVector3, %class.btVector3, %class.btVector3, i32, float, ptr, ptr, ptr, ptr, i32, i32, i32, i32, i32, float, float, float, float, float, float, float, i32, [4 x i8], ptr, i32, i32, i32, float, float, float, i32, [4 x i8], %class.btAlignedObjectArray.24, i32, %class.btVector3, [4 x i8] }>

; Function Attrs: mustprogress nounwind uwtable
define linkonce_odr dso_local noundef i32 @_ZNK17btCollisionObject15getInternalTypeEv(ptr noundef nonnull align 8 dereferenceable(372) %0) #1 comdat align 2 {
  %2 = alloca ptr, align 8
  store ptr %0, ptr %2, align 8, !tbaa !226
  %3 = load ptr, ptr %2, align 8
  %4 = getelementptr inbounds nuw %class.btCollisionObject, ptr %3, i32 0, i32 24
  %5 = load i32, ptr %4, align 8, !tbaa !280
  ret i32 %5
}

; Function Attrs: inlinehint mustprogress nounwind uwtable
define linkonce_odr dso_local noundef nonnull align 8 dereferenceable(8) ptr @_ZN20btAlignedObjectArrayIP17btCollisionObjectEixEi(ptr noundef nonnull align 8 dereferenceable(25) %0, i32 noundef %1) #5 comdat align 2 {
  %3 = alloca ptr, align 8
  %4 = alloca i32, align 4
  store ptr %0, ptr %3, align 8, !tbaa !276
  store i32 %1, ptr %4, align 4, !tbaa !9
  %5 = load ptr, ptr %3, align 8
  %6 = getelementptr inbounds nuw %class.btAlignedObjectArray, ptr %5, i32 0, i32 4
  %7 = load ptr, ptr %6, align 8, !tbaa !279
  %8 = load i32, ptr %4, align 4, !tbaa !9
  %9 = sext i32 %8 to i64
  %10 = getelementptr inbounds ptr, ptr %7, i64 %9
  ret ptr %10
}

; Function Attrs: inlinehint mustprogress nounwind uwtable
define linkonce_odr dso_local noundef i32 @_ZNK20btAlignedObjectArrayIP17btCollisionObjectE4sizeEv(ptr noundef nonnull align 8 dereferenceable(25) %0) #5 comdat align 2 {
  %2 = alloca ptr, align 8
  store ptr %0, ptr %2, align 8, !tbaa !276
  %3 = load ptr, ptr %2, align 8
  %4 = getelementptr inbounds nuw %class.btAlignedObjectArray, ptr %3, i32 0, i32 1
  %5 = load i32, ptr %4, align 4, !tbaa !278
  ret i32 %5
}

; Function Attrs: mustprogress uwtable
define dso_local void @_ZN28btSoftMultiBodyDynamicsWorld19serializeSoftBodiesEP12btSerializer(ptr noundef nonnull align 8 dereferenceable(1025) %0, ptr noundef %1) #2 align 2 {
  %3 = alloca ptr, align 8
  %4 = alloca ptr, align 8
  %5 = alloca i32, align 4
  %6 = alloca ptr, align 8
  %7 = alloca i32, align 4
  %8 = alloca ptr, align 8
  %9 = alloca ptr, align 8
  store ptr %0, ptr %3, align 8, !tbaa !12
  store ptr %1, ptr %4, align 8, !tbaa !267
  %10 = load ptr, ptr %3, align 8
  call void @llvm.lifetime.start.p0(i64 4, ptr %5) #14
  store i32 0, ptr %5, align 4, !tbaa !9
  br label %11

11:                                               ; preds = %55, %2
  %12 = load i32, ptr %5, align 4, !tbaa !9
  %13 = getelementptr inbounds nuw %class.btCollisionWorld, ptr %10, i32 0, i32 1
  %14 = call noundef i32 @_ZNK20btAlignedObjectArrayIP17btCollisionObjectE4sizeEv(ptr noundef nonnull align 8 dereferenceable(25) %13)
  %15 = icmp slt i32 %12, %14
  br i1 %15, label %16, label %58

16:                                               ; preds = %11
  call void @llvm.lifetime.start.p0(i64 8, ptr %6) #14
  %17 = getelementptr inbounds nuw %class.btCollisionWorld, ptr %10, i32 0, i32 1
  %18 = load i32, ptr %5, align 4, !tbaa !9
  %19 = call noundef nonnull align 8 dereferenceable(8) ptr @_ZN20btAlignedObjectArrayIP17btCollisionObjectEixEi(ptr noundef nonnull align 8 dereferenceable(25) %17, i32 noundef %18)
  %20 = load ptr, ptr %19, align 8, !tbaa !226
  store ptr %20, ptr %6, align 8, !tbaa !226
  %21 = load ptr, ptr %6, align 8, !tbaa !226
  %22 = call noundef i32 @_ZNK17btCollisionObject15getInternalTypeEv(ptr noundef nonnull align 8 dereferenceable(372) %21)
  %23 = and i32 %22, 8
  %24 = icmp ne i32 %23, 0
  br i1 %24, label %25, label %54

25:                                               ; preds = %16
  call void @llvm.lifetime.start.p0(i64 4, ptr %7) #14
  %26 = load ptr, ptr %6, align 8, !tbaa !226
  %27 = load ptr, ptr %26, align 8, !tbaa !24
  %28 = getelementptr inbounds ptr, ptr %27, i64 4
  %29 = load ptr, ptr %28, align 8
  %30 = call noundef i32 %29(ptr noundef nonnull align 8 dereferenceable(372) %26)
  store i32 %30, ptr %7, align 4, !tbaa !9
  call void @llvm.lifetime.start.p0(i64 8, ptr %8) #14
  %31 = load ptr, ptr %4, align 8, !tbaa !267
  %32 = load i32, ptr %7, align 4, !tbaa !9
  %33 = sext i32 %32 to i64
  %34 = load ptr, ptr %31, align 8, !tbaa !24
  %35 = getelementptr inbounds ptr, ptr %34, i64 4
  %36 = load ptr, ptr %35, align 8
  %37 = call noundef ptr %36(ptr noundef nonnull align 8 dereferenceable(8) %31, i64 noundef %33, i32 noundef 1)
  store ptr %37, ptr %8, align 8, !tbaa !269
  call void @llvm.lifetime.start.p0(i64 8, ptr %9) #14
  %38 = load ptr, ptr %6, align 8, !tbaa !226
  %39 = load ptr, ptr %8, align 8, !tbaa !269
  %40 = getelementptr inbounds nuw %class.btChunk, ptr %39, i32 0, i32 2
  %41 = load ptr, ptr %40, align 8, !tbaa !271
  %42 = load ptr, ptr %4, align 8, !tbaa !267
  %43 = load ptr, ptr %38, align 8, !tbaa !24
  %44 = getelementptr inbounds ptr, ptr %43, i64 5
  %45 = load ptr, ptr %44, align 8
  %46 = call noundef ptr %45(ptr noundef nonnull align 8 dereferenceable(372) %38, ptr noundef %41, ptr noundef %42)
  store ptr %46, ptr %9, align 8, !tbaa !273
  %47 = load ptr, ptr %4, align 8, !tbaa !267
  %48 = load ptr, ptr %8, align 8, !tbaa !269
  %49 = load ptr, ptr %9, align 8, !tbaa !273
  %50 = load ptr, ptr %6, align 8, !tbaa !226
  %51 = load ptr, ptr %47, align 8, !tbaa !24
  %52 = getelementptr inbounds ptr, ptr %51, i64 5
  %53 = load ptr, ptr %52, align 8
  call void %53(ptr noundef nonnull align 8 dereferenceable(8) %47, ptr noundef %48, ptr noundef %49, i32 noundef 1497645651, ptr noundef %50)
  call void @llvm.lifetime.end.p0(i64 8, ptr %9) #14
  call void @llvm.lifetime.end.p0(i64 8, ptr %8) #14
  call void @llvm.lifetime.end.p0(i64 4, ptr %7) #14
  br label %54

54:                                               ; preds = %25, %16
  call void @llvm.lifetime.end.p0(i64 8, ptr %6) #14
  br label %55

55:                                               ; preds = %54
  %56 = load i32, ptr %5, align 4, !tbaa !9
  %57 = add nsw i32 %56, 1
  store i32 %57, ptr %5, align 4, !tbaa !9
  br label %11, !llvm.loop !275

58:                                               ; preds = %11
  call void @llvm.lifetime.end.p0(i64 4, ptr %5) #14
  ret void
}